target datalayout = "e-m:e-p270:32:32-p271:32:32-p272:64:64-i64:64-i128:128-f80:128-n8:16:32:64-S128"
target triple = "x86_64-pc-linux-gnu"

%"struct.tbb::detail::d1::intrusive_list_node" = type { ptr, ptr }
%"struct.std::atomic.4" = type { %"struct.std::__atomic_base.5" }
%"struct.std::__atomic_base.5" = type { i32 }
%"struct.tbb::detail::r1::arena_base" = type { %"struct.tbb::detail::d0::padded.11", %"struct.std::atomic.4", %"struct.std::atomic.4", %"struct.std::atomic.4", [4 x i8], %"class.tbb::detail::r1::task_stream", %"class.tbb::detail::r1::task_stream", %"class.tbb::detail::r1::task_stream.15", i32, i32, %"struct.std::atomic", %"class.tbb::detail::r1::atomic_flag", %"class.tbb::detail::r1::observer_list", ptr, ptr, ptr, %"class.tbb::detail::r1::concurrent_monitor", %"class.tbb::detail::r1::arena_co_cache", %"class.tbb::detail::r1::atomic_flag", i32, i32, i32, i32, %"class.tbb::detail::r1::threading_control_client" }
%"struct.tbb::detail::d0::padded.11" = type { %"struct.tbb::detail::d0::padded_base.12" }
%"struct.tbb::detail::d0::padded_base.12" = type { %"struct.tbb::detail::d1::intrusive_list_node", [112 x i8] }
%"class.tbb::detail::r1::task_stream" = type <{ %"struct.std::atomic.13", ptr, i32, [4 x i8] }>
%"struct.std::atomic.13" = type { %"struct.std::__atomic_base.14" }
%"struct.std::__atomic_base.14" = type { i64 }
%"class.tbb::detail::r1::task_stream.15" = type <{ %"struct.std::atomic.13", ptr, i32, [4 x i8] }>
%"struct.std::atomic" = type { %"struct.std::__atomic_base" }
%"struct.std::__atomic_base" = type { i8 }
%"class.tbb::detail::r1::observer_list" = type { %"struct.std::atomic.18", %"struct.std::atomic.18", %"class.tbb::detail::d0::aligned_space", ptr }
%"struct.std::atomic.18" = type { %"struct.std::__atomic_base.19" }
%"struct.std::__atomic_base.19" = type { ptr }
%"class.tbb::detail::d0::aligned_space" = type { [8 x i8] }
%"class.tbb::detail::r1::concurrent_monitor" = type { %"class.tbb::detail::r1::concurrent_monitor_base.base", [4 x i8] }
%"class.tbb::detail::r1::concurrent_monitor_base.base" = type <{ %"class.tbb::detail::r1::concurrent_monitor_mutex", %"class.tbb::detail::r1::circular_doubly_linked_list_with_sentinel", %"struct.std::atomic.4" }>
%"class.tbb::detail::r1::concurrent_monitor_mutex" = type { %"struct.std::atomic.0", %"struct.std::atomic.0" }
%"struct.std::atomic.0" = type { %"struct.std::__atomic_base.1" }
%"struct.std::__atomic_base.1" = type { i32 }
%"class.tbb::detail::r1::circular_doubly_linked_list_with_sentinel" = type { %"struct.std::atomic.13", %"struct.tbb::detail::r1::circular_doubly_linked_list_with_sentinel::base_node" }
%"struct.tbb::detail::r1::circular_doubly_linked_list_with_sentinel::base_node" = type { ptr, ptr }
%"class.tbb::detail::r1::arena_co_cache" = type <{ ptr, i32, i32, %"class.tbb::detail::d1::spin_mutex", [7 x i8] }>
%"class.tbb::detail::d1::spin_mutex" = type { %"struct.std::atomic" }
%"class.tbb::detail::r1::atomic_flag" = type { %"struct.std::atomic.13" }
%"class.tbb::detail::r1::threading_control_client" = type { ptr, ptr }
%"struct.tbb::detail::r1::threading_control_impl::client_snapshot" = type { i64, i32, ptr, ptr }

; Function Attrs: mustprogress nounwind sspstrong uwtable
define linkonce_odr noundef i32 @_ZStanSt12memory_orderSt23__memory_order_modifier(i32 noundef %0, i32 noundef %1) #1 comdat {
  %3 = alloca i32, align 4
  %4 = alloca i32, align 4
  store i32 %0, ptr %3, align 4, !tbaa !102
  store i32 %1, ptr %4, align 4, !tbaa !334
  %5 = load i32, ptr %3, align 4, !tbaa !102
  %6 = load i32, ptr %4, align 4, !tbaa !334
  %7 = and i32 %5, %6
  ret i32 %7
}

; Function Attrs: alwaysinline mustprogress nounwind sspstrong uwtable
define linkonce_odr noundef i64 @_ZNKSt13__atomic_baseImE4loadESt12memory_order(ptr noundef nonnull align 8 dereferenceable(8) %0, i32 noundef %1) #5 comdat align 2 {
  %3 = alloca ptr, align 8
  %4 = alloca i32, align 4
  %5 = alloca i32, align 4
  %6 = alloca i64, align 8
  store ptr %0, ptr %3, align 8, !tbaa !350
  store i32 %1, ptr %4, align 4, !tbaa !102
  %7 = load ptr, ptr %3, align 8
  call void @llvm.lifetime.start.p0(i64 4, ptr %5) #12
  %8 = load i32, ptr %4, align 4, !tbaa !102
  %9 = call noundef i32 @_ZStanSt12memory_orderSt23__memory_order_modifier(i32 noundef %8, i32 noundef 65535)
  store i32 %9, ptr %5, align 4, !tbaa !102
  br label %10

10:                                               ; preds = %2
  br label %11

11:                                               ; preds = %10
  br label %12

12:                                               ; preds = %11
  br label %13

13:                                               ; preds = %12
  br label %14

14:                                               ; preds = %13
  br label %15

15:                                               ; preds = %14
  %16 = getelementptr inbounds nuw %"struct.std::__atomic_base.14", ptr %7, i32 0, i32 0
  %17 = load i32, ptr %4, align 4, !tbaa !102
  switch i32 %17, label %18 [
    i32 1, label %20
    i32 2, label %20
    i32 5, label %22
  ]

18:                                               ; preds = %15
  %19 = load atomic i64, ptr %16 monotonic, align 8
  store i64 %19, ptr %6, align 8
  br label %24

20:                                               ; preds = %15, %15
  %21 = load atomic i64, ptr %16 acquire, align 8
  store i64 %21, ptr %6, align 8
  br label %24

22:                                               ; preds = %15
  %23 = load atomic i64, ptr %16 seq_cst, align 8
  store i64 %23, ptr %6, align 8
  br label %24

24:                                               ; preds = %22, %20, %18
  %25 = load i64, ptr %6, align 8, !tbaa !99
  call void @llvm.lifetime.end.p0(i64 4, ptr %5) #12
  ret i64 %25
}

; Function Attrs: alwaysinline mustprogress nounwind sspstrong uwtable
define linkonce_odr noundef i32 @_ZNSt13__atomic_baseIjE9fetch_subEjSt12memory_order(ptr noundef nonnull align 4 dereferenceable(4) %0, i32 noundef %1, i32 noundef %2) #5 comdat align 2 {
  %4 = alloca ptr, align 8
  %5 = alloca i32, align 4
  %6 = alloca i32, align 4
  %7 = alloca i32, align 4
  %8 = alloca i32, align 4
  store ptr %0, ptr %4, align 8, !tbaa !109
  store i32 %1, ptr %5, align 4, !tbaa !79
  store i32 %2, ptr %6, align 4, !tbaa !102
  %9 = load ptr, ptr %4, align 8
  %10 = getelementptr inbounds nuw %"struct.std::__atomic_base.5", ptr %9, i32 0, i32 0
  %11 = load i32, ptr %6, align 4, !tbaa !102
  %12 = load i32, ptr %5, align 4, !tbaa !79
  store i32 %12, ptr %7, align 4, !tbaa !79
  switch i32 %11, label %13 [
    i32 1, label %16
    i32 2, label %16
    i32 3, label %19
    i32 4, label %22
    i32 5, label %25
  ]

13:                                               ; preds = %3
  %14 = load i32, ptr %7, align 4
  %15 = atomicrmw sub ptr %10, i32 %14 monotonic, align 4
  store i32 %15, ptr %8, align 4
  br label %28

16:                                               ; preds = %3, %3
  %17 = load i32, ptr %7, align 4
  %18 = atomicrmw sub ptr %10, i32 %17 acquire, align 4
  store i32 %18, ptr %8, align 4
  br label %28

19:                                               ; preds = %3
  %20 = load i32, ptr %7, align 4
  %21 = atomicrmw sub ptr %10, i32 %20 release, align 4
  store i32 %21, ptr %8, align 4
  br label %28

22:                                               ; preds = %3
  %23 = load i32, ptr %7, align 4
  %24 = atomicrmw sub ptr %10, i32 %23 acq_rel, align 4
  store i32 %24, ptr %8, align 4
  br label %28

25:                                               ; preds = %3
  %26 = load i32, ptr %7, align 4
  %27 = atomicrmw sub ptr %10, i32 %26 seq_cst, align 4
  store i32 %27, ptr %8, align 4
  br label %28

28:                                               ; preds = %25, %22, %19, %16, %13
  %29 = load i32, ptr %8, align 4, !tbaa !79
  ret i32 %29
}

; Function Attrs: mustprogress nounwind sspstrong uwtable
define linkonce_odr noundef zeroext i1 @_ZN3tbb6detail2r111atomic_flag4testESt12memory_order(ptr noundef nonnull align 8 dereferenceable(8) %0, i32 noundef %1) #1 comdat align 2 {
  %3 = alloca ptr, align 8
  %4 = alloca i32, align 4
  store ptr %0, ptr %3, align 8, !tbaa !100
  store i32 %1, ptr %4, align 4, !tbaa !102
  %5 = load ptr, ptr %3, align 8
  %6 = getelementptr inbounds nuw %"class.tbb::detail::r1::atomic_flag", ptr %5, i32 0, i32 0
  %7 = load i32, ptr %4, align 4, !tbaa !102
  %8 = call noundef i64 @_ZNKSt13__atomic_baseImE4loadESt12memory_order(ptr noundef nonnull align 8 dereferenceable(8) %6, i32 noundef %7) #12
  %9 = icmp ne i64 %8, 0
  ret i1 %9
}

; Function Attrs: mustprogress sspstrong uwtable
define void @_ZN3tbb6detail2r15arena17on_thread_leavingEj(ptr noundef nonnull align 128 dereferenceable(768) %0, i32 noundef %1) #2 align 2 {
  %3 = alloca ptr, align 8
  %4 = alloca i32, align 4
  %5 = alloca ptr, align 8
  %6 = alloca %"struct.tbb::detail::r1::threading_control_impl::client_snapshot", align 8
  %7 = alloca %"class.tbb::detail::r1::threading_control_client", align 8
  %8 = alloca i32, align 4
  %9 = alloca %"struct.tbb::detail::r1::threading_control_impl::client_snapshot", align 8
  store ptr %0, ptr %3, align 8, !tbaa !43
  store i32 %1, ptr %4, align 4, !tbaa !79
  %10 = load ptr, ptr %3, align 8
  %11 = load i32, ptr %4, align 4, !tbaa !79
  %12 = icmp eq i32 %11, 1
  br i1 %12, label %13, label %17

13:                                               ; preds = %2
  %14 = getelementptr inbounds nuw %"struct.tbb::detail::r1::arena_base", ptr %10, i32 0, i32 18
  %15 = call noundef zeroext i1 @_ZN3tbb6detail2r111atomic_flag4testESt12memory_order(ptr noundef nonnull align 8 dereferenceable(8) %14, i32 noundef 2)
  br i1 %15, label %17, label %16

16:                                               ; preds = %13
  call void @_ZN3tbb6detail2r15arena11out_of_workEv(ptr noundef nonnull align 128 dereferenceable(768) %10)
  br label %17

17:                                               ; preds = %16, %13, %2
  call void @llvm.lifetime.start.p0(i64 8, ptr %5) #12
  %18 = getelementptr inbounds nuw %"struct.tbb::detail::r1::arena_base", ptr %10, i32 0, i32 14
  %19 = load ptr, ptr %18, align 8, !tbaa !44
  store ptr %19, ptr %5, align 8, !tbaa !94
  call void @llvm.lifetime.start.p0(i64 32, ptr %6) #12
  %20 = load ptr, ptr %5, align 8, !tbaa !94
  %21 = getelementptr inbounds nuw %"struct.tbb::detail::r1::arena_base", ptr %10, i32 0, i32 23
  call void @llvm.memcpy.p0.p0.i64(ptr align 8 %7, ptr align 128 %21, i64 16, i1 false), !tbaa.struct !95
  %22 = getelementptr inbounds nuw { ptr, ptr }, ptr %7, i32 0, i32 0
  %23 = load ptr, ptr %22, align 8
  %24 = getelementptr inbounds nuw { ptr, ptr }, ptr %7, i32 0, i32 1
  %25 = load ptr, ptr %24, align 8
  call void @_ZN3tbb6detail2r117threading_control26prepare_client_destructionENS1_24threading_control_clientE(ptr dead_on_unwind writable sret(%"struct.tbb::detail::r1::threading_control_impl::client_snapshot") align 8 %6, ptr noundef nonnull align 8 dereferenceable(16) %20, ptr %23, ptr %25)
  call void @llvm.lifetime.start.p0(i64 4, ptr %8) #12
  %26 = getelementptr inbounds nuw %"struct.tbb::detail::r1::arena_base", ptr %10, i32 0, i32 2
  %27 = load i32, ptr %4, align 4, !tbaa !79
  %28 = call noundef i32 @_ZNSt13__atomic_baseIjE9fetch_subEjSt12memory_order(ptr noundef nonnull align 4 dereferenceable(4) %26, i32 noundef %27, i32 noundef 3) #12
  %29 = load i32, ptr %4, align 4, !tbaa !79
  %30 = sub i32 %28, %29
  store i32 %30, ptr %8, align 4, !tbaa !79
  %31 = load i32, ptr %8, align 4, !tbaa !79
  %32 = icmp eq i32 %31, 0
  br i1 %32, label %33, label %38

33:                                               ; preds = %17
  %34 = load ptr, ptr %5, align 8, !tbaa !94
  call void @llvm.memcpy.p0.p0.i64(ptr align 8 %9, ptr align 8 %6, i64 32, i1 false), !tbaa.struct !98
  %35 = call noundef zeroext i1 @_ZN3tbb6detail2r117threading_control18try_destroy_clientENS1_22threading_control_impl15client_snapshotE(ptr noundef nonnull align 8 dereferenceable(16) %34, ptr noundef byval(%"struct.tbb::detail::r1::threading_control_impl::client_snapshot") align 8 %9)
  br i1 %35, label %36, label %37

36:                                               ; preds = %33
  call void @_ZN3tbb6detail2r15arena10free_arenaEv(ptr noundef nonnull align 128 dereferenceable(768) %10)
  br label %37

37:                                               ; preds = %36, %33
  br label %38

38:                                               ; preds = %37, %17
  call void @llvm.lifetime.end.p0(i64 4, ptr %8) #12
  call void @llvm.lifetime.end.p0(i64 32, ptr %6) #12
  call void @llvm.lifetime.end.p0(i64 8, ptr %5) #12
  ret void
}