; Function Attrs: mustprogress sspstrong uwtable
define void @_ZN3tbb6detail2r15arena17on_thread_leavingEj(ptr noundef nonnull align 128 dereferenceable(768) %0, i32 noundef %1) local_unnamed_addr #1 align 2 {
  %3 = alloca %"struct.tbb::detail::r1::threading_control_impl::client_snapshot", align 8
  %4 = icmp eq i32 %1, 1
  br i1 %4, label %5, label %9

5:                                                ; preds = %2
  %6 = getelementptr inbounds nuw i8, ptr %0, i64 360
  %7 = load atomic i64, ptr %6 acquire, align 8
  %.not = icmp eq i64 %7, 0
  br i1 %.not, label %8, label %9

8:                                                ; preds = %5
  tail call void @_ZN3tbb6detail2r15arena11out_of_workEv(ptr noundef nonnull align 128 dereferenceable(768) %0)
  br label %9

9:                                                ; preds = %8, %5, %2
  %10 = getelementptr inbounds nuw i8, ptr %0, i64 280
  %11 = load ptr, ptr %10, align 8, !tbaa !3
  call void @llvm.lifetime.start.p0(i64 32, ptr nonnull %3) #13
  %12 = getelementptr inbounds nuw i8, ptr %0, i64 384
  %.sroa.0.0.copyload = load ptr, ptr %12, align 128, !tbaa !59
  %.sroa.2.0..sroa_idx = getelementptr inbounds nuw i8, ptr %0, i64 392
  %.sroa.2.0.copyload = load ptr, ptr %.sroa.2.0..sroa_idx, align 8, !tbaa !60
  call void @_ZN3tbb6detail2r117threading_control26prepare_client_destructionENS1_24threading_control_clientE(ptr dead_on_unwind nonnull writable sret(%"struct.tbb::detail::r1::threading_control_impl::client_snapshot") align 8 %3, ptr noundef nonnull align 8 dereferenceable(16) %11, ptr %.sroa.0.0.copyload, ptr %.sroa.2.0.copyload)
  %13 = getelementptr inbounds nuw i8, ptr %0, i64 132
  %14 = atomicrmw sub ptr %13, i32 %1 release, align 4
  %15 = icmp eq i32 %14, %1
  br i1 %15, label %16, label %19

16:                                               ; preds = %9
  %17 = call noundef zeroext i1 @_ZN3tbb6detail2r117threading_control18try_destroy_clientENS1_22threading_control_impl15client_snapshotE(ptr noundef nonnull align 8 dereferenceable(16) %11, ptr noundef nonnull byval(%"struct.tbb::detail::r1::threading_control_impl::client_snapshot") align 8 %3)
  br i1 %17, label %18, label %19

18:                                               ; preds = %16
  call void @_ZN3tbb6detail2r15arena10free_arenaEv(ptr noundef nonnull align 128 dereferenceable(768) %0)
  br label %19

19:                                               ; preds = %16, %18, %9
  call void @llvm.lifetime.end.p0(i64 32, ptr nonnull %3) #13
  ret void
}